
a.out:	file format elf64-x86-64

Disassembly of section .text:

0000000001001500 <_start>:
 1001500: f3 0f 1e fa                  	endbr64
 1001504: 31 ed                        	xor	ebp, ebp
 1001506: 49 89 d1                     	mov	r9, rdx
 1001509: 5e                           	pop	rsi
 100150a: 48 89 e2                     	mov	rdx, rsp
 100150d: 48 83 e4 f0                  	and	rsp, -0x10
 1001511: 50                           	push	rax
 1001512: 54                           	push	rsp
 1001513: 45 31 c0                     	xor	r8d, r8d
 1001516: 31 c9                        	xor	ecx, ecx
 1001518: 48 8d 3d 5a 00 00 00         	lea	rdi, [rip + 0x5a]       # 0x1001579 <main>
 100151f: ff 15 2b 12 00 00            	call	qword ptr [rip + 0x122b] # 0x1002750 <puts+0x1002750>
 1001525: f4                           	hlt
 1001526: 66 2e 0f 1f 84 00 00 00 00 00	nop	word ptr cs:[rax + rax]

0000000001001530 <_dl_relocate_static_pie>:
 1001530: f3 0f 1e fa                  	endbr64
 1001534: c3                           	ret
 1001535: cc                           	int3
 1001536: cc                           	int3
 1001537: cc                           	int3
 1001538: cc                           	int3
 1001539: cc                           	int3
 100153a: cc                           	int3
 100153b: cc                           	int3
 100153c: cc                           	int3
 100153d: cc                           	int3
 100153e: cc                           	int3
 100153f: cc                           	int3

0000000001001540 <exit>:
 1001540: b8 3c 00 00 00               	mov	eax, 0x3c
 1001545: 0f 05                        	syscall
 1001547: c3                           	ret

0000000001001548 <print_progn>:
 1001548: 48 bf 84 37 00 01 00 00 00 00	movabs	rdi, 0x1003784
 1001552: e8 79 00 00 00               	call	0x10015d0 <puts@plt>
 1001557: c3                           	ret

0000000001001558 <echo_argv>:
 1001558: 57                           	push	rdi
 1001559: 56                           	push	rsi
 100155a: 48 83 ec 08                  	sub	rsp, 0x8
 100155e: 48 8b 3e                     	mov	rdi, qword ptr [rsi]
 1001561: e8 6a 00 00 00               	call	0x10015d0 <puts@plt>
 1001566: 48 83 c4 08                  	add	rsp, 0x8
 100156a: 5e                           	pop	rsi
 100156b: 5f                           	pop	rdi
 100156c: eb 01                        	jmp	0x100156f <echo_argv.next_argv_elem_inc_rsi>
 100156e: c3                           	ret

000000000100156f <echo_argv.next_argv_elem_inc_rsi>:
 100156f: 48 83 c6 08                  	add	rsi, 0x8
 1001573: 48 ff cf                     	dec	rdi
 1001576: 75 e0                        	jne	0x1001558 <echo_argv>
 1001578: c3                           	ret

0000000001001579 <main>:
 1001579: 57                           	push	rdi
 100157a: 56                           	push	rsi
 100157b: e8 c8 ff ff ff               	call	0x1001548 <print_progn>
 1001580: 5e                           	pop	rsi
 1001581: 5f                           	pop	rdi
 1001582: eb d4                        	jmp	0x1001558 <echo_argv>

0000000001001584 <main.leave>:
 1001584: c3                           	ret

Disassembly of section .init:

0000000001001588 <_init>:
 1001588: f3 0f 1e fa                  	endbr64
 100158c: 48 83 ec 08                  	sub	rsp, 0x8
 1001590: 48 8b 05 c1 11 00 00         	mov	rax, qword ptr [rip + 0x11c1] # 0x1002758 <puts+0x1002758>
 1001597: 48 85 c0                     	test	rax, rax
 100159a: 74 02                        	je	0x100159e <_init+0x16>
 100159c: ff d0                        	call	rax
 100159e: 48 83 c4 08                  	add	rsp, 0x8
 10015a2: c3                           	ret

Disassembly of section .fini:

00000000010015a4 <_fini>:
 10015a4: f3 0f 1e fa                  	endbr64
 10015a8: 48 83 ec 08                  	sub	rsp, 0x8
 10015ac: 48 83 c4 08                  	add	rsp, 0x8
 10015b0: c3                           	ret

Disassembly of section .plt:

00000000010015c0 <.plt>:
 10015c0: ff 35 a2 11 00 00            	push	qword ptr [rip + 0x11a2] # 0x1002768 <_GLOBAL_OFFSET_TABLE_+0x8>
 10015c6: ff 25 a4 11 00 00            	jmp	qword ptr [rip + 0x11a4] # 0x1002770 <_GLOBAL_OFFSET_TABLE_+0x10>
 10015cc: 0f 1f 40 00                  	nop	dword ptr [rax]

00000000010015d0 <puts@plt>:
 10015d0: ff 25 a2 11 00 00            	jmp	qword ptr [rip + 0x11a2] # 0x1002778 <_GLOBAL_OFFSET_TABLE_+0x18>
 10015d6: 68 00 00 00 00               	push	0x0
 10015db: e9 e0 ff ff ff               	jmp	0x10015c0 <.plt>
